; Function Attrs: nounwind uwtable
define internal void @pkey_ec_cleanup(ptr noundef captures(none) %0) #1 {
  %2 = getelementptr inbounds nuw i8, ptr %0, i64 152
  %3 = load ptr, ptr %2, align 8, !tbaa !14
  %.not = icmp eq ptr %3, null
  br i1 %.not, label %10, label %4

4:                                                ; preds = %1
  %5 = load ptr, ptr %3, align 8, !tbaa !25
  tail call void @EC_GROUP_free(ptr noundef %5) #6
  %6 = getelementptr inbounds nuw i8, ptr %3, i64 16
  %7 = load ptr, ptr %6, align 8, !tbaa !27
  tail call void @EC_KEY_free(ptr noundef %7) #6
  %8 = getelementptr inbounds nuw i8, ptr %3, i64 40
  %9 = load ptr, ptr %8, align 8, !tbaa !30
  tail call void @CRYPTO_free(ptr noundef %9, ptr noundef nonnull @.str, i32 noundef 98) #6
  tail call void @CRYPTO_free(ptr noundef nonnull %3, ptr noundef nonnull @.str, i32 noundef 99) #6
  store ptr null, ptr %2, align 8, !tbaa !14
  br label %10

10:                                               ; preds = %4, %1
  ret void
}